; Function Attrs: mustprogress nofree norecurse nosync nounwind willreturn memory(argmem: readwrite) uwtable
define dso_local void @blake3_hasher_init_keyed(ptr noundef writeonly captures(none) initializes((0, 139), (144, 145)) %0, ptr noundef readonly captures(none) %1) local_unnamed_addr #1 {
  %3 = load i16, ptr %1, align 1
  %4 = zext i16 %3 to i32
  %5 = getelementptr inbounds nuw i8, ptr %1, i64 2
  %6 = load i8, ptr %5, align 1, !tbaa !10
  %7 = zext i8 %6 to i32
  %8 = shl nuw nsw i32 %7, 16
  %9 = or disjoint i32 %8, %4
  %10 = getelementptr inbounds nuw i8, ptr %1, i64 3
  %11 = load i8, ptr %10, align 1, !tbaa !10
  %12 = zext i8 %11 to i32
  %13 = shl nuw i32 %12, 24
  %14 = or disjoint i32 %9, %13
  %15 = getelementptr inbounds nuw i8, ptr %1, i64 4
  %16 = load i16, ptr %15, align 1
  %17 = zext i16 %16 to i32
  %18 = getelementptr inbounds nuw i8, ptr %1, i64 6
  %19 = load i8, ptr %18, align 1, !tbaa !10
  %20 = zext i8 %19 to i32
  %21 = shl nuw nsw i32 %20, 16
  %22 = or disjoint i32 %21, %17
  %23 = getelementptr inbounds nuw i8, ptr %1, i64 7
  %24 = load i8, ptr %23, align 1, !tbaa !10
  %25 = zext i8 %24 to i32
  %26 = shl nuw i32 %25, 24
  %27 = or disjoint i32 %22, %26
  %28 = getelementptr inbounds nuw i8, ptr %1, i64 8
  %29 = load i16, ptr %28, align 1
  %30 = zext i16 %29 to i32
  %31 = getelementptr inbounds nuw i8, ptr %1, i64 10
  %32 = load i8, ptr %31, align 1, !tbaa !10
  %33 = zext i8 %32 to i32
  %34 = shl nuw nsw i32 %33, 16
  %35 = or disjoint i32 %34, %30
  %36 = getelementptr inbounds nuw i8, ptr %1, i64 11
  %37 = load i8, ptr %36, align 1, !tbaa !10
  %38 = zext i8 %37 to i32
  %39 = shl nuw i32 %38, 24
  %40 = or disjoint i32 %35, %39
  %41 = getelementptr inbounds nuw i8, ptr %1, i64 12
  %42 = load i16, ptr %41, align 1
  %43 = zext i16 %42 to i32
  %44 = getelementptr inbounds nuw i8, ptr %1, i64 14
  %45 = load i8, ptr %44, align 1, !tbaa !10
  %46 = zext i8 %45 to i32
  %47 = shl nuw nsw i32 %46, 16
  %48 = or disjoint i32 %47, %43
  %49 = getelementptr inbounds nuw i8, ptr %1, i64 15
  %50 = load i8, ptr %49, align 1, !tbaa !10
  %51 = zext i8 %50 to i32
  %52 = shl nuw i32 %51, 24
  %53 = or disjoint i32 %48, %52
  %54 = getelementptr inbounds nuw i8, ptr %1, i64 16
  %55 = load i16, ptr %54, align 1
  %56 = zext i16 %55 to i32
  %57 = getelementptr inbounds nuw i8, ptr %1, i64 18
  %58 = load i8, ptr %57, align 1, !tbaa !10
  %59 = zext i8 %58 to i32
  %60 = shl nuw nsw i32 %59, 16
  %61 = or disjoint i32 %60, %56
  %62 = getelementptr inbounds nuw i8, ptr %1, i64 19
  %63 = load i8, ptr %62, align 1, !tbaa !10
  %64 = zext i8 %63 to i32
  %65 = shl nuw i32 %64, 24
  %66 = or disjoint i32 %61, %65
  %67 = getelementptr inbounds nuw i8, ptr %1, i64 20
  %68 = load i16, ptr %67, align 1
  %69 = zext i16 %68 to i32
  %70 = getelementptr inbounds nuw i8, ptr %1, i64 22
  %71 = load i8, ptr %70, align 1, !tbaa !10
  %72 = zext i8 %71 to i32
  %73 = shl nuw nsw i32 %72, 16
  %74 = or disjoint i32 %73, %69
  %75 = getelementptr inbounds nuw i8, ptr %1, i64 23
  %76 = load i8, ptr %75, align 1, !tbaa !10
  %77 = zext i8 %76 to i32
  %78 = shl nuw i32 %77, 24
  %79 = or disjoint i32 %74, %78
  %80 = getelementptr inbounds nuw i8, ptr %1, i64 24
  %81 = load i16, ptr %80, align 1
  %82 = zext i16 %81 to i32
  %83 = getelementptr inbounds nuw i8, ptr %1, i64 26
  %84 = load i8, ptr %83, align 1, !tbaa !10
  %85 = zext i8 %84 to i32
  %86 = shl nuw nsw i32 %85, 16
  %87 = or disjoint i32 %86, %82
  %88 = getelementptr inbounds nuw i8, ptr %1, i64 27
  %89 = load i8, ptr %88, align 1, !tbaa !10
  %90 = zext i8 %89 to i32
  %91 = shl nuw i32 %90, 24
  %92 = or disjoint i32 %87, %91
  %93 = getelementptr inbounds nuw i8, ptr %1, i64 28
  %94 = load i16, ptr %93, align 1
  %95 = zext i16 %94 to i32
  %96 = getelementptr inbounds nuw i8, ptr %1, i64 30
  %97 = load i8, ptr %96, align 1, !tbaa !10
  %98 = zext i8 %97 to i32
  %99 = shl nuw nsw i32 %98, 16
  %100 = or disjoint i32 %99, %95
  %101 = getelementptr inbounds nuw i8, ptr %1, i64 31
  %102 = load i8, ptr %101, align 1, !tbaa !10
  %103 = zext i8 %102 to i32
  %104 = shl nuw i32 %103, 24
  %105 = or disjoint i32 %100, %104
  store i32 %14, ptr %0, align 8
  %.sroa.5.0..sroa_idx = getelementptr inbounds nuw i8, ptr %0, i64 4
  store i32 %27, ptr %.sroa.5.0..sroa_idx, align 4
  %.sroa.6.0..sroa_idx = getelementptr inbounds nuw i8, ptr %0, i64 8
  store i32 %40, ptr %.sroa.6.0..sroa_idx, align 8
  %.sroa.7.0..sroa_idx = getelementptr inbounds nuw i8, ptr %0, i64 12
  store i32 %53, ptr %.sroa.7.0..sroa_idx, align 4
  %.sroa.8.0..sroa_idx = getelementptr inbounds nuw i8, ptr %0, i64 16
  store i32 %66, ptr %.sroa.8.0..sroa_idx, align 8
  %.sroa.9.0..sroa_idx = getelementptr inbounds nuw i8, ptr %0, i64 20
  store i32 %79, ptr %.sroa.9.0..sroa_idx, align 4
  %.sroa.10.0..sroa_idx = getelementptr inbounds nuw i8, ptr %0, i64 24
  store i32 %92, ptr %.sroa.10.0..sroa_idx, align 8
  %.sroa.11.0..sroa_idx = getelementptr inbounds nuw i8, ptr %0, i64 28
  store i32 %105, ptr %.sroa.11.0..sroa_idx, align 4
  %106 = getelementptr inbounds nuw i8, ptr %0, i64 32
  store i32 %14, ptr %106, align 8
  %.sroa.5.0..sroa_idx3 = getelementptr inbounds nuw i8, ptr %0, i64 36
  store i32 %27, ptr %.sroa.5.0..sroa_idx3, align 4
  %.sroa.6.0..sroa_idx5 = getelementptr inbounds nuw i8, ptr %0, i64 40
  store i32 %40, ptr %.sroa.6.0..sroa_idx5, align 8
  %.sroa.7.0..sroa_idx7 = getelementptr inbounds nuw i8, ptr %0, i64 44
  store i32 %53, ptr %.sroa.7.0..sroa_idx7, align 4
  %.sroa.8.0..sroa_idx9 = getelementptr inbounds nuw i8, ptr %0, i64 48
  store i32 %66, ptr %.sroa.8.0..sroa_idx9, align 8
  %.sroa.9.0..sroa_idx11 = getelementptr inbounds nuw i8, ptr %0, i64 52
  store i32 %79, ptr %.sroa.9.0..sroa_idx11, align 4
  %.sroa.10.0..sroa_idx13 = getelementptr inbounds nuw i8, ptr %0, i64 56
  store i32 %92, ptr %.sroa.10.0..sroa_idx13, align 8
  %.sroa.11.0..sroa_idx15 = getelementptr inbounds nuw i8, ptr %0, i64 60
  store i32 %105, ptr %.sroa.11.0..sroa_idx15, align 4
  %107 = getelementptr inbounds nuw i8, ptr %0, i64 64
  %108 = getelementptr inbounds nuw i8, ptr %0, i64 138
  tail call void @llvm.memset.p0.i64(ptr noundef nonnull align 8 dereferenceable(74) %107, i8 0, i64 74, i1 false)
  store i8 16, ptr %108, align 2, !tbaa !11
  %109 = getelementptr inbounds nuw i8, ptr %0, i64 144
  store i8 0, ptr %109, align 8, !tbaa !4
  ret void
}